target datalayout = "e-m:e-p270:32:32-p271:32:32-p272:64:64-i64:64-i128:128-f80:128-n8:16:32:64-S128"
target triple = "x86_64-pc-linux-gnu"

%struct.Atrac3pWavesData = type { %struct.Atrac3pWaveEnvelope, %struct.Atrac3pWaveEnvelope, i32, i32 }
%struct.Atrac3pWaveEnvelope = type { i32, i32, i32, i32 }
%struct.Atrac3pWaveSynthParams = type { i32, i32, i32, [16 x i8], [16 x i8], [16 x i8], i32, [48 x %struct.Atrac3pWaveParam] }
%struct.Atrac3pWaveParam = type { i32, i32, i32, i32 }
%struct.AVFloatDSPContext = type { ptr, ptr, ptr, ptr, ptr, ptr, ptr, ptr, ptr, ptr, ptr, ptr }

@sine_table = internal global [2048 x float] zeroinitializer, align 16
@hann_window = internal global [256 x float] zeroinitializer, align 16
@amp_sf_tab = internal global [64 x float] zeroinitializer, align 16

; Function Attrs: nounwind uwtable
define internal void @waves_synth(ptr noundef %0, ptr noundef %1, ptr noundef %2, ptr noundef %3, i32 noundef %4, i32 noundef %5, ptr noundef %6) #4 {
  %8 = alloca ptr, align 8
  %9 = alloca ptr, align 8
  %10 = alloca ptr, align 8
  %11 = alloca ptr, align 8
  %12 = alloca i32, align 4
  %13 = alloca i32, align 4
  %14 = alloca ptr, align 8
  %15 = alloca i32, align 4
  %16 = alloca i32, align 4
  %17 = alloca i32, align 4
  %18 = alloca i32, align 4
  %19 = alloca double, align 8
  %20 = alloca ptr, align 8
  store ptr %0, ptr %8, align 8, !tbaa !47
  store ptr %1, ptr %9, align 8, !tbaa !26
  store ptr %2, ptr %10, align 8, !tbaa !48
  store ptr %3, ptr %11, align 8, !tbaa !17
  store i32 %4, ptr %12, align 4, !tbaa !4
  store i32 %5, ptr %13, align 4, !tbaa !4
  store ptr %6, ptr %14, align 8, !tbaa !19
  call void @llvm.lifetime.start.p0(i64 4, ptr %15) #6
  call void @llvm.lifetime.start.p0(i64 4, ptr %16) #6
  call void @llvm.lifetime.start.p0(i64 4, ptr %17) #6
  call void @llvm.lifetime.start.p0(i64 4, ptr %18) #6
  call void @llvm.lifetime.start.p0(i64 8, ptr %19) #6
  call void @llvm.lifetime.start.p0(i64 8, ptr %20) #6
  %21 = load ptr, ptr %8, align 8, !tbaa !47
  %22 = getelementptr inbounds nuw %struct.Atrac3pWaveSynthParams, ptr %21, i32 0, i32 7
  %23 = load ptr, ptr %9, align 8, !tbaa !26
  %24 = getelementptr inbounds nuw %struct.Atrac3pWavesData, ptr %23, i32 0, i32 3
  %25 = load i32, ptr %24, align 4, !tbaa !50
  %26 = sext i32 %25 to i64
  %27 = getelementptr inbounds [48 x %struct.Atrac3pWaveParam], ptr %22, i64 0, i64 %26
  store ptr %27, ptr %20, align 8, !tbaa !51
  store i32 0, ptr %16, align 4, !tbaa !4
  br label %28

28:                                               ; preds = %97, %7
  %29 = load i32, ptr %16, align 4, !tbaa !4
  %30 = load ptr, ptr %9, align 8, !tbaa !26
  %31 = getelementptr inbounds nuw %struct.Atrac3pWavesData, ptr %30, i32 0, i32 2
  %32 = load i32, ptr %31, align 4, !tbaa !38
  %33 = icmp slt i32 %29, %32
  br i1 %33, label %34, label %102

34:                                               ; preds = %28
  %35 = load ptr, ptr %20, align 8, !tbaa !51
  %36 = getelementptr inbounds nuw %struct.Atrac3pWaveParam, ptr %35, i32 0, i32 1
  %37 = load i32, ptr %36, align 4, !tbaa !53
  %38 = sext i32 %37 to i64
  %39 = getelementptr inbounds [64 x float], ptr @amp_sf_tab, i64 0, i64 %38
  %40 = load float, ptr %39, align 4, !tbaa !8
  %41 = load ptr, ptr %8, align 8, !tbaa !47
  %42 = getelementptr inbounds nuw %struct.Atrac3pWaveSynthParams, ptr %41, i32 0, i32 1
  %43 = load i32, ptr %42, align 4, !tbaa !55
  %44 = icmp ne i32 %43, 0
  br i1 %44, label %52, label %45

45:                                               ; preds = %34
  %46 = load ptr, ptr %20, align 8, !tbaa !51
  %47 = getelementptr inbounds nuw %struct.Atrac3pWaveParam, ptr %46, i32 0, i32 2
  %48 = load i32, ptr %47, align 4, !tbaa !57
  %49 = add nsw i32 %48, 1
  %50 = sitofp i32 %49 to float
  %51 = fdiv nsz float %50, 0x402E428F60000000
  br label %53

52:                                               ; preds = %34
  br label %53

53:                                               ; preds = %52, %45
  %54 = phi nsz float [ %51, %45 ], [ 1.000000e+00, %52 ]
  %55 = fmul nsz float %40, %54
  %56 = fpext nsz float %55 to double
  store double %56, ptr %19, align 8, !tbaa !58
  %57 = load ptr, ptr %20, align 8, !tbaa !51
  %58 = getelementptr inbounds nuw %struct.Atrac3pWaveParam, ptr %57, i32 0, i32 0
  %59 = load i32, ptr %58, align 4, !tbaa !60
  store i32 %59, ptr %17, align 4, !tbaa !4
  %60 = load ptr, ptr %20, align 8, !tbaa !51
  %61 = getelementptr inbounds nuw %struct.Atrac3pWaveParam, ptr %60, i32 0, i32 3
  %62 = load i32, ptr %61, align 4, !tbaa !61
  %63 = and i32 %62, 31
  %64 = shl i32 %63, 6
  %65 = load i32, ptr %13, align 4, !tbaa !4
  %66 = xor i32 %65, 128
  %67 = load i32, ptr %17, align 4, !tbaa !4
  %68 = mul nsw i32 %66, %67
  %69 = sub nsw i32 %64, %68
  %70 = and i32 %69, 2047
  store i32 %70, ptr %18, align 4, !tbaa !4
  store i32 0, ptr %15, align 4, !tbaa !4
  br label %71

71:                                               ; preds = %93, %53
  %72 = load i32, ptr %15, align 4, !tbaa !4
  %73 = icmp slt i32 %72, 128
  br i1 %73, label %74, label %96

74:                                               ; preds = %71
  %75 = load i32, ptr %18, align 4, !tbaa !4
  %76 = sext i32 %75 to i64
  %77 = getelementptr inbounds [2048 x float], ptr @sine_table, i64 0, i64 %76
  %78 = load float, ptr %77, align 4, !tbaa !8
  %79 = fpext nsz float %78 to double
  %80 = load double, ptr %19, align 8, !tbaa !58
  %81 = load ptr, ptr %14, align 8, !tbaa !19
  %82 = load i32, ptr %15, align 4, !tbaa !4
  %83 = sext i32 %82 to i64
  %84 = getelementptr inbounds float, ptr %81, i64 %83
  %85 = load float, ptr %84, align 4, !tbaa !8
  %86 = fpext nsz float %85 to double
  %87 = call nsz double @llvm.fmuladd.f64(double %79, double %80, double %86)
  %88 = fptrunc nsz double %87 to float
  store float %88, ptr %84, align 4, !tbaa !8
  %89 = load i32, ptr %18, align 4, !tbaa !4
  %90 = load i32, ptr %17, align 4, !tbaa !4
  %91 = add nsw i32 %89, %90
  %92 = and i32 %91, 2047
  store i32 %92, ptr %18, align 4, !tbaa !4
  br label %93

93:                                               ; preds = %74
  %94 = load i32, ptr %15, align 4, !tbaa !4
  %95 = add nsw i32 %94, 1
  store i32 %95, ptr %15, align 4, !tbaa !4
  br label %71, !llvm.loop !62

96:                                               ; preds = %71
  br label %97

97:                                               ; preds = %96
  %98 = load i32, ptr %16, align 4, !tbaa !4
  %99 = add nsw i32 %98, 1
  store i32 %99, ptr %16, align 4, !tbaa !4
  %100 = load ptr, ptr %20, align 8, !tbaa !51
  %101 = getelementptr inbounds nuw %struct.Atrac3pWaveParam, ptr %100, i32 1
  store ptr %101, ptr %20, align 8, !tbaa !51
  br label %28, !llvm.loop !63

102:                                              ; preds = %28
  %103 = load i32, ptr %12, align 4, !tbaa !4
  %104 = icmp ne i32 %103, 0
  br i1 %104, label %105, label %111

105:                                              ; preds = %102
  %106 = load ptr, ptr %11, align 8, !tbaa !17
  %107 = getelementptr inbounds nuw %struct.AVFloatDSPContext, ptr %106, i32 0, i32 3
  %108 = load ptr, ptr %107, align 8, !tbaa !64
  %109 = load ptr, ptr %14, align 8, !tbaa !19
  %110 = load ptr, ptr %14, align 8, !tbaa !19
  call void %108(ptr noundef %109, ptr noundef %110, float noundef -1.000000e+00, i32 noundef 128)
  br label %111

111:                                              ; preds = %105, %102
  %112 = load ptr, ptr %10, align 8, !tbaa !48
  %113 = getelementptr inbounds nuw %struct.Atrac3pWaveEnvelope, ptr %112, i32 0, i32 0
  %114 = load i32, ptr %113, align 4, !tbaa !65
  %115 = icmp ne i32 %114, 0
  br i1 %115, label %116, label %180

116:                                              ; preds = %111
  %117 = load ptr, ptr %10, align 8, !tbaa !48
  %118 = getelementptr inbounds nuw %struct.Atrac3pWaveEnvelope, ptr %117, i32 0, i32 2
  %119 = load i32, ptr %118, align 4, !tbaa !66
  %120 = shl i32 %119, 2
  %121 = load i32, ptr %13, align 4, !tbaa !4
  %122 = sub nsw i32 %120, %121
  store i32 %122, ptr %18, align 4, !tbaa !4
  %123 = load i32, ptr %18, align 4, !tbaa !4
  %124 = icmp sgt i32 %123, 0
  br i1 %124, label %125, label %179

125:                                              ; preds = %116
  %126 = load i32, ptr %18, align 4, !tbaa !4
  %127 = icmp sle i32 %126, 128
  br i1 %127, label %128, label %179

128:                                              ; preds = %125
  %129 = load ptr, ptr %14, align 8, !tbaa !19
  %130 = load i32, ptr %18, align 4, !tbaa !4
  %131 = sext i32 %130 to i64
  %132 = mul i64 %131, 4
  call void @llvm.memset.p0.i64(ptr align 4 %129, i8 0, i64 %132, i1 false)
  %133 = load ptr, ptr %10, align 8, !tbaa !48
  %134 = getelementptr inbounds nuw %struct.Atrac3pWaveEnvelope, ptr %133, i32 0, i32 1
  %135 = load i32, ptr %134, align 4, !tbaa !67
  %136 = icmp ne i32 %135, 0
  br i1 %136, label %137, label %145

137:                                              ; preds = %128
  %138 = load ptr, ptr %10, align 8, !tbaa !48
  %139 = getelementptr inbounds nuw %struct.Atrac3pWaveEnvelope, ptr %138, i32 0, i32 2
  %140 = load i32, ptr %139, align 4, !tbaa !66
  %141 = load ptr, ptr %10, align 8, !tbaa !48
  %142 = getelementptr inbounds nuw %struct.Atrac3pWaveEnvelope, ptr %141, i32 0, i32 3
  %143 = load i32, ptr %142, align 4, !tbaa !68
  %144 = icmp ne i32 %140, %143
  br i1 %144, label %145, label %178

145:                                              ; preds = %137, %128
  %146 = load float, ptr @hann_window, align 16, !tbaa !8
  %147 = load ptr, ptr %14, align 8, !tbaa !19
  %148 = load i32, ptr %18, align 4, !tbaa !4
  %149 = add nsw i32 %148, 0
  %150 = sext i32 %149 to i64
  %151 = getelementptr inbounds float, ptr %147, i64 %150
  %152 = load float, ptr %151, align 4, !tbaa !8
  %153 = fmul nsz float %152, %146
  store float %153, ptr %151, align 4, !tbaa !8
  %154 = load float, ptr getelementptr inbounds ([256 x float], ptr @hann_window, i64 0, i64 32), align 16, !tbaa !8
  %155 = load ptr, ptr %14, align 8, !tbaa !19
  %156 = load i32, ptr %18, align 4, !tbaa !4
  %157 = add nsw i32 %156, 1
  %158 = sext i32 %157 to i64
  %159 = getelementptr inbounds float, ptr %155, i64 %158
  %160 = load float, ptr %159, align 4, !tbaa !8
  %161 = fmul nsz float %160, %154
  store float %161, ptr %159, align 4, !tbaa !8
  %162 = load float, ptr getelementptr inbounds ([256 x float], ptr @hann_window, i64 0, i64 64), align 16, !tbaa !8
  %163 = load ptr, ptr %14, align 8, !tbaa !19
  %164 = load i32, ptr %18, align 4, !tbaa !4
  %165 = add nsw i32 %164, 2
  %166 = sext i32 %165 to i64
  %167 = getelementptr inbounds float, ptr %163, i64 %166
  %168 = load float, ptr %167, align 4, !tbaa !8
  %169 = fmul nsz float %168, %162
  store float %169, ptr %167, align 4, !tbaa !8
  %170 = load float, ptr getelementptr inbounds ([256 x float], ptr @hann_window, i64 0, i64 96), align 16, !tbaa !8
  %171 = load ptr, ptr %14, align 8, !tbaa !19
  %172 = load i32, ptr %18, align 4, !tbaa !4
  %173 = add nsw i32 %172, 3
  %174 = sext i32 %173 to i64
  %175 = getelementptr inbounds float, ptr %171, i64 %174
  %176 = load float, ptr %175, align 4, !tbaa !8
  %177 = fmul nsz float %176, %170
  store float %177, ptr %175, align 4, !tbaa !8
  br label %178

178:                                              ; preds = %145, %137
  br label %179

179:                                              ; preds = %178, %125, %116
  br label %180

180:                                              ; preds = %179, %111
  %181 = load ptr, ptr %10, align 8, !tbaa !48
  %182 = getelementptr inbounds nuw %struct.Atrac3pWaveEnvelope, ptr %181, i32 0, i32 1
  %183 = load i32, ptr %182, align 4, !tbaa !67
  %184 = icmp ne i32 %183, 0
  br i1 %184, label %185, label %240

185:                                              ; preds = %180
  %186 = load ptr, ptr %10, align 8, !tbaa !48
  %187 = getelementptr inbounds nuw %struct.Atrac3pWaveEnvelope, ptr %186, i32 0, i32 3
  %188 = load i32, ptr %187, align 4, !tbaa !68
  %189 = add nsw i32 %188, 1
  %190 = shl i32 %189, 2
  %191 = load i32, ptr %13, align 4, !tbaa !4
  %192 = sub nsw i32 %190, %191
  store i32 %192, ptr %18, align 4, !tbaa !4
  %193 = load i32, ptr %18, align 4, !tbaa !4
  %194 = icmp sgt i32 %193, 0
  br i1 %194, label %195, label %239

195:                                              ; preds = %185
  %196 = load i32, ptr %18, align 4, !tbaa !4
  %197 = icmp sle i32 %196, 128
  br i1 %197, label %198, label %239

198:                                              ; preds = %195
  %199 = load float, ptr getelementptr inbounds ([256 x float], ptr @hann_window, i64 0, i64 96), align 16, !tbaa !8
  %200 = load ptr, ptr %14, align 8, !tbaa !19
  %201 = load i32, ptr %18, align 4, !tbaa !4
  %202 = sub nsw i32 %201, 4
  %203 = sext i32 %202 to i64
  %204 = getelementptr inbounds float, ptr %200, i64 %203
  %205 = load float, ptr %204, align 4, !tbaa !8
  %206 = fmul nsz float %205, %199
  store float %206, ptr %204, align 4, !tbaa !8
  %207 = load float, ptr getelementptr inbounds ([256 x float], ptr @hann_window, i64 0, i64 64), align 16, !tbaa !8
  %208 = load ptr, ptr %14, align 8, !tbaa !19
  %209 = load i32, ptr %18, align 4, !tbaa !4
  %210 = sub nsw i32 %209, 3
  %211 = sext i32 %210 to i64
  %212 = getelementptr inbounds float, ptr %208, i64 %211
  %213 = load float, ptr %212, align 4, !tbaa !8
  %214 = fmul nsz float %213, %207
  store float %214, ptr %212, align 4, !tbaa !8
  %215 = load float, ptr getelementptr inbounds ([256 x float], ptr @hann_window, i64 0, i64 32), align 16, !tbaa !8
  %216 = load ptr, ptr %14, align 8, !tbaa !19
  %217 = load i32, ptr %18, align 4, !tbaa !4
  %218 = sub nsw i32 %217, 2
  %219 = sext i32 %218 to i64
  %220 = getelementptr inbounds float, ptr %216, i64 %219
  %221 = load float, ptr %220, align 4, !tbaa !8
  %222 = fmul nsz float %221, %215
  store float %222, ptr %220, align 4, !tbaa !8
  %223 = load float, ptr @hann_window, align 16, !tbaa !8
  %224 = load ptr, ptr %14, align 8, !tbaa !19
  %225 = load i32, ptr %18, align 4, !tbaa !4
  %226 = sub nsw i32 %225, 1
  %227 = sext i32 %226 to i64
  %228 = getelementptr inbounds float, ptr %224, i64 %227
  %229 = load float, ptr %228, align 4, !tbaa !8
  %230 = fmul nsz float %229, %223
  store float %230, ptr %228, align 4, !tbaa !8
  %231 = load ptr, ptr %14, align 8, !tbaa !19
  %232 = load i32, ptr %18, align 4, !tbaa !4
  %233 = sext i32 %232 to i64
  %234 = getelementptr inbounds float, ptr %231, i64 %233
  %235 = load i32, ptr %18, align 4, !tbaa !4
  %236 = sub nsw i32 128, %235
  %237 = sext i32 %236 to i64
  %238 = mul i64 %237, 4
  call void @llvm.memset.p0.i64(ptr align 4 %234, i8 0, i64 %238, i1 false)
  br label %239

239:                                              ; preds = %198, %195, %185
  br label %240

240:                                              ; preds = %239, %180
  call void @llvm.lifetime.end.p0(i64 8, ptr %20) #6
  call void @llvm.lifetime.end.p0(i64 8, ptr %19) #6
  call void @llvm.lifetime.end.p0(i64 4, ptr %18) #6
  call void @llvm.lifetime.end.p0(i64 4, ptr %17) #6
  call void @llvm.lifetime.end.p0(i64 4, ptr %16) #6
  call void @llvm.lifetime.end.p0(i64 4, ptr %15) #6
  ret void
}