; Function Attrs: nounwind uwtable
define internal fastcc void @waves_synth(ptr noundef readonly captures(none) %0, ptr noundef readonly captures(none) %1, ptr noundef readonly captures(none) %2, ptr noundef readonly captures(none) %3, i32 noundef range(i32 0, 256) %4, i32 noundef range(i32 0, 129) %5, ptr noundef nonnull %6) unnamed_addr #4 {
  %8 = getelementptr inbounds nuw i8, ptr %1, i64 32
  %9 = load i32, ptr %8, align 4, !tbaa !30
  %10 = icmp sgt i32 %9, 0
  br i1 %10, label %.lr.ph, label %._crit_edge

.lr.ph:                                           ; preds = %7
  %11 = getelementptr inbounds nuw i8, ptr %0, i64 64
  %12 = getelementptr inbounds nuw i8, ptr %1, i64 36
  %13 = load i32, ptr %12, align 4, !tbaa !39
  %14 = sext i32 %13 to i64
  %15 = getelementptr inbounds [48 x %struct.Atrac3pWaveParam], ptr %11, i64 0, i64 %14
  %16 = getelementptr inbounds nuw i8, ptr %0, i64 4
  %17 = load i32, ptr %16, align 4, !tbaa !40
  %.not70 = icmp eq i32 %17, 0
  %18 = xor i32 %5, 128
  br i1 %.not70, label %.lr.ph.split.us, label %.lr.ph.split

.lr.ph.split.us:                                  ; preds = %.lr.ph, %37
  %.074.us = phi ptr [ %39, %37 ], [ %15, %.lr.ph ]
  %.06373.us = phi i32 [ %38, %37 ], [ 0, %.lr.ph ]
  %19 = getelementptr inbounds nuw i8, ptr %.074.us, i64 4
  %20 = load i32, ptr %19, align 4, !tbaa !42
  %21 = sext i32 %20 to i64
  %22 = getelementptr inbounds [64 x float], ptr @amp_sf_tab, i64 0, i64 %21
  %23 = load float, ptr %22, align 4, !tbaa !4
  %24 = getelementptr inbounds nuw i8, ptr %.074.us, i64 8
  %25 = load i32, ptr %24, align 4, !tbaa !44
  %26 = add nsw i32 %25, 1
  %27 = sitofp i32 %26 to float
  %28 = fdiv nsz float %27, 0x402E428F60000000
  %29 = fmul nsz float %23, %28
  %30 = fpext nsz float %29 to double
  %31 = load i32, ptr %.074.us, align 4, !tbaa !45
  %32 = getelementptr inbounds nuw i8, ptr %.074.us, i64 12
  %33 = load i32, ptr %32, align 4, !tbaa !46
  %34 = shl i32 %33, 6
  %35 = mul nsw i32 %31, %18
  %36 = sub i32 %34, %35
  br label %40

37:                                               ; preds = %40
  %38 = add nuw nsw i32 %.06373.us, 1
  %39 = getelementptr inbounds nuw i8, ptr %.074.us, i64 16
  %exitcond82.not = icmp eq i32 %38, %9
  br i1 %exitcond82.not, label %._crit_edge, label %.lr.ph.split.us, !llvm.loop !47

40:                                               ; preds = %40, %.lr.ph.split.us
  %indvars.iv78 = phi i64 [ %indvars.iv.next79, %40 ], [ 0, %.lr.ph.split.us ]
  %.062.in71.us = phi i32 [ %50, %40 ], [ %36, %.lr.ph.split.us ]
  %.062.us = and i32 %.062.in71.us, 2047
  %41 = zext nneg i32 %.062.us to i64
  %42 = getelementptr inbounds nuw [2048 x float], ptr @sine_table, i64 0, i64 %41
  %43 = load float, ptr %42, align 4, !tbaa !4
  %44 = fpext nsz float %43 to double
  %45 = getelementptr inbounds nuw float, ptr %6, i64 %indvars.iv78
  %46 = load float, ptr %45, align 4, !tbaa !4
  %47 = fpext nsz float %46 to double
  %48 = tail call nsz double @llvm.fmuladd.f64(double %44, double %30, double %47)
  %49 = fptrunc nsz double %48 to float
  store float %49, ptr %45, align 4, !tbaa !4
  %50 = add nsw i32 %.062.us, %31
  %indvars.iv.next79 = add nuw nsw i64 %indvars.iv78, 1
  %exitcond81.not = icmp eq i64 %indvars.iv.next79, 128
  br i1 %exitcond81.not, label %37, label %40, !llvm.loop !48

.lr.ph.split:                                     ; preds = %.lr.ph, %74
  %.074 = phi ptr [ %76, %74 ], [ %15, %.lr.ph ]
  %.06373 = phi i32 [ %75, %74 ], [ 0, %.lr.ph ]
  %51 = getelementptr inbounds nuw i8, ptr %.074, i64 4
  %52 = load i32, ptr %51, align 4, !tbaa !42
  %53 = sext i32 %52 to i64
  %54 = getelementptr inbounds [64 x float], ptr @amp_sf_tab, i64 0, i64 %53
  %55 = load float, ptr %54, align 4, !tbaa !4
  %56 = fpext nsz float %55 to double
  %57 = load i32, ptr %.074, align 4, !tbaa !45
  %58 = getelementptr inbounds nuw i8, ptr %.074, i64 12
  %59 = load i32, ptr %58, align 4, !tbaa !46
  %60 = shl i32 %59, 6
  %61 = mul nsw i32 %57, %18
  %62 = sub i32 %60, %61
  br label %63

63:                                               ; preds = %.lr.ph.split, %63
  %indvars.iv = phi i64 [ 0, %.lr.ph.split ], [ %indvars.iv.next, %63 ]
  %.062.in71 = phi i32 [ %62, %.lr.ph.split ], [ %73, %63 ]
  %.062 = and i32 %.062.in71, 2047
  %64 = zext nneg i32 %.062 to i64
  %65 = getelementptr inbounds nuw [2048 x float], ptr @sine_table, i64 0, i64 %64
  %66 = load float, ptr %65, align 4, !tbaa !4
  %67 = fpext nsz float %66 to double
  %68 = getelementptr inbounds nuw float, ptr %6, i64 %indvars.iv
  %69 = load float, ptr %68, align 4, !tbaa !4
  %70 = fpext nsz float %69 to double
  %71 = tail call nsz double @llvm.fmuladd.f64(double %67, double %56, double %70)
  %72 = fptrunc nsz double %71 to float
  store float %72, ptr %68, align 4, !tbaa !4
  %73 = add nsw i32 %.062, %57
  %indvars.iv.next = add nuw nsw i64 %indvars.iv, 1
  %exitcond.not = icmp eq i64 %indvars.iv.next, 128
  br i1 %exitcond.not, label %74, label %63, !llvm.loop !48

74:                                               ; preds = %63
  %75 = add nuw nsw i32 %.06373, 1
  %76 = getelementptr inbounds nuw i8, ptr %.074, i64 16
  %exitcond77.not = icmp eq i32 %75, %9
  br i1 %exitcond77.not, label %._crit_edge, label %.lr.ph.split, !llvm.loop !47

._crit_edge:                                      ; preds = %74, %37, %7
  %.not = icmp eq i32 %4, 0
  br i1 %.not, label %80, label %77

77:                                               ; preds = %._crit_edge
  %78 = getelementptr inbounds nuw i8, ptr %3, i64 24
  %79 = load ptr, ptr %78, align 8, !tbaa !49
  tail call void %79(ptr noundef nonnull %6, ptr noundef nonnull %6, float noundef -1.000000e+00, i32 noundef 128) #8
  br label %80

80:                                               ; preds = %77, %._crit_edge
  %81 = load i32, ptr %2, align 4, !tbaa !50
  %.not66 = icmp eq i32 %81, 0
  br i1 %.not66, label %114, label %82

82:                                               ; preds = %80
  %83 = getelementptr inbounds nuw i8, ptr %2, i64 8
  %84 = load i32, ptr %83, align 4, !tbaa !51
  %85 = shl i32 %84, 2
  %86 = sub nsw i32 %85, %5
  %87 = add i32 %86, -1
  %or.cond = icmp ult i32 %87, 128
  br i1 %or.cond, label %88, label %114

88:                                               ; preds = %82
  %89 = zext nneg i32 %86 to i64
  %90 = shl nuw nsw i64 %89, 2
  tail call void @llvm.memset.p0.i64(ptr nonnull align 4 %6, i8 0, i64 %90, i1 false)
  %91 = getelementptr inbounds nuw i8, ptr %2, i64 4
  %92 = load i32, ptr %91, align 4, !tbaa !52
  %.not67 = icmp eq i32 %92, 0
  br i1 %.not67, label %97, label %93

93:                                               ; preds = %88
  %94 = load i32, ptr %83, align 4, !tbaa !51
  %95 = getelementptr inbounds nuw i8, ptr %2, i64 12
  %96 = load i32, ptr %95, align 4, !tbaa !53
  %.not68 = icmp eq i32 %94, %96
  br i1 %.not68, label %114, label %97

97:                                               ; preds = %93, %88
  %98 = load float, ptr @hann_window, align 16, !tbaa !4
  %99 = getelementptr inbounds nuw float, ptr %6, i64 %89
  %100 = load float, ptr %99, align 4, !tbaa !4
  %101 = fmul nsz float %98, %100
  store float %101, ptr %99, align 4, !tbaa !4
  %102 = load float, ptr getelementptr inbounds nuw (i8, ptr @hann_window, i64 128), align 16, !tbaa !4
  %103 = getelementptr inbounds nuw i8, ptr %99, i64 4
  %104 = load float, ptr %103, align 4, !tbaa !4
  %105 = fmul nsz float %102, %104
  store float %105, ptr %103, align 4, !tbaa !4
  %106 = load float, ptr getelementptr inbounds nuw (i8, ptr @hann_window, i64 256), align 16, !tbaa !4
  %107 = getelementptr inbounds nuw i8, ptr %99, i64 8
  %108 = load float, ptr %107, align 4, !tbaa !4
  %109 = fmul nsz float %106, %108
  store float %109, ptr %107, align 4, !tbaa !4
  %110 = load float, ptr getelementptr inbounds nuw (i8, ptr @hann_window, i64 384), align 16, !tbaa !4
  %111 = getelementptr inbounds nuw i8, ptr %99, i64 12
  %112 = load float, ptr %111, align 4, !tbaa !4
  %113 = fmul nsz float %110, %112
  store float %113, ptr %111, align 4, !tbaa !4
  br label %114

114:                                              ; preds = %82, %97, %93, %80
  %115 = getelementptr inbounds nuw i8, ptr %2, i64 4
  %116 = load i32, ptr %115, align 4, !tbaa !52
  %.not69 = icmp eq i32 %116, 0
  br i1 %.not69, label %145, label %117

117:                                              ; preds = %114
  %118 = getelementptr inbounds nuw i8, ptr %2, i64 12
  %119 = load i32, ptr %118, align 4, !tbaa !53
  %120 = shl i32 %119, 2
  %reass.sub = sub i32 %120, %5
  %121 = add i32 %reass.sub, 3
  %or.cond3 = icmp ult i32 %121, 128
  br i1 %or.cond3, label %122, label %145

122:                                              ; preds = %117
  %123 = add nsw i32 %reass.sub, 4
  %124 = load float, ptr getelementptr inbounds nuw (i8, ptr @hann_window, i64 384), align 16, !tbaa !4
  %125 = zext nneg i32 %123 to i64
  %126 = getelementptr float, ptr %6, i64 %125
  %127 = getelementptr i8, ptr %126, i64 -16
  %128 = load float, ptr %127, align 4, !tbaa !4
  %129 = fmul nsz float %124, %128
  store float %129, ptr %127, align 4, !tbaa !4
  %130 = load float, ptr getelementptr inbounds nuw (i8, ptr @hann_window, i64 256), align 16, !tbaa !4
  %131 = getelementptr i8, ptr %126, i64 -12
  %132 = load float, ptr %131, align 4, !tbaa !4
  %133 = fmul nsz float %130, %132
  store float %133, ptr %131, align 4, !tbaa !4
  %134 = load float, ptr getelementptr inbounds nuw (i8, ptr @hann_window, i64 128), align 16, !tbaa !4
  %135 = getelementptr i8, ptr %126, i64 -8
  %136 = load float, ptr %135, align 4, !tbaa !4
  %137 = fmul nsz float %134, %136
  store float %137, ptr %135, align 4, !tbaa !4
  %138 = load float, ptr @hann_window, align 16, !tbaa !4
  %139 = getelementptr i8, ptr %126, i64 -4
  %140 = load float, ptr %139, align 4, !tbaa !4
  %141 = fmul nsz float %138, %140
  store float %141, ptr %139, align 4, !tbaa !4
  %142 = shl nuw nsw i32 %123, 2
  %143 = sub nuw nsw i32 512, %142
  %144 = zext nneg i32 %143 to i64
  tail call void @llvm.memset.p0.i64(ptr nonnull align 4 %126, i8 0, i64 %144, i1 false)
  br label %145

145:                                              ; preds = %117, %122, %114
  ret void
}